; Function Attrs: mustprogress uwtable
define hidden noundef zeroext i1 @_ZN4cvc58internal6theory11quantifiers8TermUtil16hasInstConstAttrENS0_12NodeTemplateILb1EEE(ptr noundef readonly captures(none) %0) local_unnamed_addr #3 align 2 personality ptr @__gxx_personality_v0 {
  %2 = alloca %"class.cvc5::internal::NodeTemplate", align 8
  %3 = alloca %"class.cvc5::internal::NodeTemplate", align 8
  call void @llvm.lifetime.start.p0(i64 8, ptr nonnull %2) #24
  %4 = load ptr, ptr %0, align 8, !tbaa !6
  store ptr %4, ptr %3, align 8, !tbaa !6
  %5 = load i64, ptr %4, align 8
  %6 = lshr i64 %5, 40
  %7 = trunc nuw nsw i64 %6 to i32
  %8 = and i32 %7, 1048575
  %9 = icmp samesign ult i32 %8, 1048574
  br i1 %9, label %10, label %15, !prof !13

10:                                               ; preds = %1
  %11 = add i64 %5, 1099511627776
  %12 = and i64 %11, 1152920405095219200
  %13 = and i64 %5, -1152920405095219201
  %14 = or disjoint i64 %12, %13
  store i64 %14, ptr %4, align 8
  br label %_ZN4cvc58internal12NodeTemplateILb1EEC2ERKS2_.exit

15:                                               ; preds = %1
  %16 = icmp eq i32 %8, 1048574
  br i1 %16, label %17, label %_ZN4cvc58internal12NodeTemplateILb1EEC2ERKS2_.exit, !prof !14

17:                                               ; preds = %15
  %18 = or i64 %5, 1152920405095219200
  store i64 %18, ptr %4, align 8
  tail call void @_ZN4cvc58internal4expr9NodeValue20markRefCountMaxedOutEv(ptr noundef nonnull align 8 dereferenceable(24) %4)
  br label %_ZN4cvc58internal12NodeTemplateILb1EEC2ERKS2_.exit

_ZN4cvc58internal12NodeTemplateILb1EEC2ERKS2_.exit: ; preds = %10, %15, %17
  invoke void @_ZN4cvc58internal6theory11quantifiers8TermUtil16getInstConstAttrENS0_12NodeTemplateILb1EEE(ptr dead_on_unwind nonnull writable sret(%"class.cvc5::internal::NodeTemplate") align 8 %2, ptr noundef nonnull %3)
          to label %19 unwind label %59

19:                                               ; preds = %_ZN4cvc58internal12NodeTemplateILb1EEC2ERKS2_.exit
  %20 = load ptr, ptr %2, align 8, !tbaa !6
  %21 = load atomic i8, ptr @_ZGVZN4cvc58internal4expr9NodeValue4nullEvE6s_null acquire, align 8
  %22 = icmp eq i8 %21, 0
  br i1 %22, label %23, label %30, !prof !144

23:                                               ; preds = %19
  %24 = call i32 @__cxa_guard_acquire(ptr nonnull @_ZGVZN4cvc58internal4expr9NodeValue4nullEvE6s_null) #24
  %.not.i.i = icmp eq i32 %24, 0
  br i1 %.not.i.i, label %30, label %25

25:                                               ; preds = %23
  %26 = invoke noalias noundef nonnull dereferenceable(24) ptr @_Znwm(i64 noundef 24) #27
          to label %27 unwind label %.body

27:                                               ; preds = %25
  store i64 1152920405095219200, ptr %26, align 8
  %28 = getelementptr inbounds nuw i8, ptr %26, i64 8
  call void @llvm.memset.p0.i64(ptr noundef nonnull align 8 dereferenceable(16) %28, i8 0, i64 16, i1 false)
  store ptr %26, ptr @_ZZN4cvc58internal4expr9NodeValue4nullEvE6s_null, align 8, !tbaa !12
  call void @__cxa_guard_release(ptr nonnull @_ZGVZN4cvc58internal4expr9NodeValue4nullEvE6s_null) #24
  br label %30

.body:                                            ; preds = %25
  %29 = landingpad { ptr, i32 }
          cleanup
  call void @__cxa_guard_abort(ptr nonnull @_ZGVZN4cvc58internal4expr9NodeValue4nullEvE6s_null) #24
  call void @_ZN4cvc58internal12NodeTemplateILb1EED2Ev(ptr noundef nonnull align 8 dereferenceable(8) %2) #24
  br label %61

30:                                               ; preds = %27, %23, %19
  %31 = load ptr, ptr @_ZZN4cvc58internal4expr9NodeValue4nullEvE6s_null, align 8, !tbaa !12
  %32 = load ptr, ptr %2, align 8, !tbaa !6
  %33 = load i64, ptr %32, align 8
  %34 = and i64 %33, 1152920405095219200
  %.not.i.i3 = icmp eq i64 %34, 1152920405095219200
  br i1 %.not.i.i3, label %_ZN4cvc58internal12NodeTemplateILb1EED2Ev.exit, label %35, !prof !14

35:                                               ; preds = %30
  %36 = add i64 %33, 1152920405095219200
  %37 = and i64 %36, 1152920405095219200
  %38 = and i64 %33, -1152920405095219201
  %39 = or disjoint i64 %37, %38
  store i64 %39, ptr %32, align 8
  %40 = icmp eq i64 %37, 0
  br i1 %40, label %41, label %_ZN4cvc58internal12NodeTemplateILb1EED2Ev.exit, !prof !14

41:                                               ; preds = %35
  invoke void @_ZN4cvc58internal4expr9NodeValue15markForDeletionEv(ptr noundef nonnull align 8 dereferenceable(24) %32)
          to label %_ZN4cvc58internal12NodeTemplateILb1EED2Ev.exit unwind label %42

42:                                               ; preds = %41
  %43 = landingpad { ptr, i32 }
          catch ptr null
  %44 = extractvalue { ptr, i32 } %43, 0
  call void @__clang_call_terminate(ptr %44) #25
  unreachable

_ZN4cvc58internal12NodeTemplateILb1EED2Ev.exit:   ; preds = %30, %35, %41
  %45 = load ptr, ptr %3, align 8, !tbaa !6
  %46 = load i64, ptr %45, align 8
  %47 = and i64 %46, 1152920405095219200
  %.not.i.i4 = icmp eq i64 %47, 1152920405095219200
  br i1 %.not.i.i4, label %_ZN4cvc58internal12NodeTemplateILb1EED2Ev.exit5, label %48, !prof !14

48:                                               ; preds = %_ZN4cvc58internal12NodeTemplateILb1EED2Ev.exit
  %49 = add i64 %46, 1152920405095219200
  %50 = and i64 %49, 1152920405095219200
  %51 = and i64 %46, -1152920405095219201
  %52 = or disjoint i64 %50, %51
  store i64 %52, ptr %45, align 8
  %53 = icmp eq i64 %50, 0
  br i1 %53, label %54, label %_ZN4cvc58internal12NodeTemplateILb1EED2Ev.exit5, !prof !14

54:                                               ; preds = %48
  invoke void @_ZN4cvc58internal4expr9NodeValue15markForDeletionEv(ptr noundef nonnull align 8 dereferenceable(24) %45)
          to label %_ZN4cvc58internal12NodeTemplateILb1EED2Ev.exit5 unwind label %55

55:                                               ; preds = %54
  %56 = landingpad { ptr, i32 }
          catch ptr null
  %57 = extractvalue { ptr, i32 } %56, 0
  call void @__clang_call_terminate(ptr %57) #25
  unreachable

_ZN4cvc58internal12NodeTemplateILb1EED2Ev.exit5:  ; preds = %_ZN4cvc58internal12NodeTemplateILb1EED2Ev.exit, %48, %54
  %58 = icmp ne ptr %20, %31
  call void @llvm.lifetime.end.p0(i64 8, ptr nonnull %2) #24
  ret i1 %58

59:                                               ; preds = %_ZN4cvc58internal12NodeTemplateILb1EEC2ERKS2_.exit
  %60 = landingpad { ptr, i32 }
          cleanup
  br label %61

61:                                               ; preds = %.body, %59
  %.pn = phi { ptr, i32 } [ %29, %.body ], [ %60, %59 ]
  call void @_ZN4cvc58internal12NodeTemplateILb1EED2Ev(ptr noundef nonnull align 8 dereferenceable(8) %3) #24
  call void @llvm.lifetime.end.p0(i64 8, ptr nonnull %2) #24
  resume { ptr, i32 } %.pn
}